target datalayout = "e-m:e-p270:32:32-p271:32:32-p272:64:64-i64:64-i128:128-f80:128-n8:16:32:64-S128"
target triple = "x86_64-pc-linux-gnu"

%"class.clang::SourceLocation" = type { i32 }
%"class.clang::OpenACCClauseWithParams" = type { %"class.clang::OpenACCClause.base", %"class.clang::SourceLocation" }
%"class.clang::OpenACCClause.base" = type <{ ptr, i32, %"class.clang::SourceRange" }>
%"class.clang::SourceRange" = type { %"class.clang::SourceLocation", %"class.clang::SourceLocation" }
%"class.clang::OpenACCClauseWithCondition" = type { %"class.clang::OpenACCClauseWithParams", ptr }
%"class.clang::OpenACCClause" = type <{ ptr, i32, %"class.clang::SourceRange", [4 x i8] }>

@_ZTVN5clang15OpenACCIfClauseE = linkonce_odr unnamed_addr constant { [4 x ptr] } { [4 x ptr] [ptr null, ptr null, ptr @_ZN5clang15OpenACCIfClauseD2Ev, ptr @_ZN5clang15OpenACCIfClauseD0Ev] }, comdat, align 8
@_ZTVN5clang23OpenACCClauseWithParamsE = linkonce_odr unnamed_addr constant { [4 x ptr] } { [4 x ptr] [ptr null, ptr null, ptr @_ZN5clang23OpenACCClauseWithParamsD2Ev, ptr @_ZN5clang23OpenACCClauseWithParamsD0Ev] }, comdat, align 8
@_ZTVN5clang13OpenACCClauseE = linkonce_odr unnamed_addr constant { [4 x ptr] } { [4 x ptr] [ptr null, ptr null, ptr @_ZN5clang13OpenACCClauseD2Ev, ptr @_ZN5clang13OpenACCClauseD0Ev] }, comdat, align 8
@_ZTVN5clang26OpenACCClauseWithConditionE = linkonce_odr unnamed_addr constant { [4 x ptr] } { [4 x ptr] [ptr null, ptr null, ptr @_ZN5clang26OpenACCClauseWithConditionD2Ev, ptr @_ZN5clang26OpenACCClauseWithConditionD0Ev] }, comdat, align 8

; Function Attrs: mustprogress nounwind uwtable
define linkonce_odr hidden void @_ZN5clang11SourceRangeC2ENS_14SourceLocationES1_(ptr noundef nonnull align 4 dereferenceable(8) %0, i32 %1, i32 %2) unnamed_addr #0 comdat align 2 {
  %4 = alloca %"class.clang::SourceLocation", align 4
  %5 = alloca %"class.clang::SourceLocation", align 4
  %6 = alloca ptr, align 8
  %7 = getelementptr inbounds nuw %"class.clang::SourceLocation", ptr %4, i32 0, i32 0
  store i32 %1, ptr %7, align 4
  %8 = getelementptr inbounds nuw %"class.clang::SourceLocation", ptr %5, i32 0, i32 0
  store i32 %2, ptr %8, align 4
  store ptr %0, ptr %6, align 8
  %9 = load ptr, ptr %6, align 8
  %10 = getelementptr inbounds nuw %"class.clang::SourceRange", ptr %9, i32 0, i32 0
  call void @llvm.memcpy.p0.p0.i64(ptr align 4 %10, ptr align 4 %4, i64 4, i1 false)
  %11 = getelementptr inbounds nuw %"class.clang::SourceRange", ptr %9, i32 0, i32 1
  call void @llvm.memcpy.p0.p0.i64(ptr align 4 %11, ptr align 4 %5, i64 4, i1 false)
  ret void
}

; Function Attrs: mustprogress nounwind uwtable
define linkonce_odr hidden void @_ZN5clang13OpenACCClauseC2ENS_17OpenACCClauseKindENS_14SourceLocationES2_(ptr noundef nonnull align 8 dereferenceable(20) %0, i32 noundef %1, i32 %2, i32 %3) unnamed_addr #0 comdat align 2 {
  %5 = alloca %"class.clang::SourceLocation", align 4
  %6 = alloca %"class.clang::SourceLocation", align 4
  %7 = alloca ptr, align 8
  %8 = alloca i32, align 4
  %9 = alloca %"class.clang::SourceLocation", align 4
  %10 = alloca %"class.clang::SourceLocation", align 4
  %11 = getelementptr inbounds nuw %"class.clang::SourceLocation", ptr %5, i32 0, i32 0
  store i32 %2, ptr %11, align 4
  %12 = getelementptr inbounds nuw %"class.clang::SourceLocation", ptr %6, i32 0, i32 0
  store i32 %3, ptr %12, align 4
  store ptr %0, ptr %7, align 8
  store i32 %1, ptr %8, align 4
  %13 = load ptr, ptr %7, align 8
  store ptr getelementptr inbounds inrange(-16, 16) ({ [4 x ptr] }, ptr @_ZTVN5clang13OpenACCClauseE, i32 0, i32 0, i32 2), ptr %13, align 8
  %14 = getelementptr inbounds nuw %"class.clang::OpenACCClause", ptr %13, i32 0, i32 1
  %15 = load i32, ptr %8, align 4
  store i32 %15, ptr %14, align 8
  %16 = getelementptr inbounds nuw %"class.clang::OpenACCClause", ptr %13, i32 0, i32 2
  call void @llvm.memcpy.p0.p0.i64(ptr align 4 %9, ptr align 4 %5, i64 4, i1 false)
  call void @llvm.memcpy.p0.p0.i64(ptr align 4 %10, ptr align 4 %6, i64 4, i1 false)
  %17 = getelementptr inbounds nuw %"class.clang::SourceLocation", ptr %9, i32 0, i32 0
  %18 = load i32, ptr %17, align 4
  %19 = getelementptr inbounds nuw %"class.clang::SourceLocation", ptr %10, i32 0, i32 0
  %20 = load i32, ptr %19, align 4
  call void @_ZN5clang11SourceRangeC2ENS_14SourceLocationES1_(ptr noundef nonnull align 4 dereferenceable(8) %16, i32 %18, i32 %20)
  ret void
}

; Function Attrs: mustprogress nounwind uwtable
define linkonce_odr hidden void @_ZN5clang23OpenACCClauseWithParamsC2ENS_17OpenACCClauseKindENS_14SourceLocationES2_S2_(ptr noundef nonnull align 8 dereferenceable(24) %0, i32 noundef %1, i32 %2, i32 %3, i32 %4) unnamed_addr #0 comdat align 2 {
  %6 = alloca %"class.clang::SourceLocation", align 4
  %7 = alloca %"class.clang::SourceLocation", align 4
  %8 = alloca %"class.clang::SourceLocation", align 4
  %9 = alloca ptr, align 8
  %10 = alloca i32, align 4
  %11 = alloca %"class.clang::SourceLocation", align 4
  %12 = alloca %"class.clang::SourceLocation", align 4
  %13 = getelementptr inbounds nuw %"class.clang::SourceLocation", ptr %6, i32 0, i32 0
  store i32 %2, ptr %13, align 4
  %14 = getelementptr inbounds nuw %"class.clang::SourceLocation", ptr %7, i32 0, i32 0
  store i32 %3, ptr %14, align 4
  %15 = getelementptr inbounds nuw %"class.clang::SourceLocation", ptr %8, i32 0, i32 0
  store i32 %4, ptr %15, align 4
  store ptr %0, ptr %9, align 8
  store i32 %1, ptr %10, align 4
  %16 = load ptr, ptr %9, align 8
  %17 = load i32, ptr %10, align 4
  call void @llvm.memcpy.p0.p0.i64(ptr align 4 %11, ptr align 4 %6, i64 4, i1 false)
  call void @llvm.memcpy.p0.p0.i64(ptr align 4 %12, ptr align 4 %8, i64 4, i1 false)
  %18 = getelementptr inbounds nuw %"class.clang::SourceLocation", ptr %11, i32 0, i32 0
  %19 = load i32, ptr %18, align 4
  %20 = getelementptr inbounds nuw %"class.clang::SourceLocation", ptr %12, i32 0, i32 0
  %21 = load i32, ptr %20, align 4
  call void @_ZN5clang13OpenACCClauseC2ENS_17OpenACCClauseKindENS_14SourceLocationES2_(ptr noundef nonnull align 8 dereferenceable(20) %16, i32 noundef %17, i32 %19, i32 %21)
  store ptr getelementptr inbounds inrange(-16, 16) ({ [4 x ptr] }, ptr @_ZTVN5clang23OpenACCClauseWithParamsE, i32 0, i32 0, i32 2), ptr %16, align 8
  %22 = getelementptr inbounds nuw %"class.clang::OpenACCClauseWithParams", ptr %16, i32 0, i32 1
  call void @llvm.memcpy.p0.p0.i64(ptr align 4 %22, ptr align 4 %7, i64 4, i1 false)
  ret void
}

; Function Attrs: mustprogress nounwind uwtable
define linkonce_odr hidden void @_ZN5clang26OpenACCClauseWithConditionC2ENS_17OpenACCClauseKindENS_14SourceLocationES2_PNS_4ExprES2_(ptr noundef nonnull align 8 dereferenceable(32) %0, i32 noundef %1, i32 %2, i32 %3, ptr noundef %4, i32 %5) unnamed_addr #0 comdat align 2 {
  %7 = alloca %"class.clang::SourceLocation", align 4
  %8 = alloca %"class.clang::SourceLocation", align 4
  %9 = alloca %"class.clang::SourceLocation", align 4
  %10 = alloca ptr, align 8
  %11 = alloca i32, align 4
  %12 = alloca ptr, align 8
  %13 = alloca %"class.clang::SourceLocation", align 4
  %14 = alloca %"class.clang::SourceLocation", align 4
  %15 = alloca %"class.clang::SourceLocation", align 4
  %16 = getelementptr inbounds nuw %"class.clang::SourceLocation", ptr %7, i32 0, i32 0
  store i32 %2, ptr %16, align 4
  %17 = getelementptr inbounds nuw %"class.clang::SourceLocation", ptr %8, i32 0, i32 0
  store i32 %3, ptr %17, align 4
  %18 = getelementptr inbounds nuw %"class.clang::SourceLocation", ptr %9, i32 0, i32 0
  store i32 %5, ptr %18, align 4
  store ptr %0, ptr %10, align 8
  store i32 %1, ptr %11, align 4
  store ptr %4, ptr %12, align 8
  %19 = load ptr, ptr %10, align 8
  %20 = load i32, ptr %11, align 4
  call void @llvm.memcpy.p0.p0.i64(ptr align 4 %13, ptr align 4 %7, i64 4, i1 false)
  call void @llvm.memcpy.p0.p0.i64(ptr align 4 %14, ptr align 4 %8, i64 4, i1 false)
  call void @llvm.memcpy.p0.p0.i64(ptr align 4 %15, ptr align 4 %9, i64 4, i1 false)
  %21 = getelementptr inbounds nuw %"class.clang::SourceLocation", ptr %13, i32 0, i32 0
  %22 = load i32, ptr %21, align 4
  %23 = getelementptr inbounds nuw %"class.clang::SourceLocation", ptr %14, i32 0, i32 0
  %24 = load i32, ptr %23, align 4
  %25 = getelementptr inbounds nuw %"class.clang::SourceLocation", ptr %15, i32 0, i32 0
  %26 = load i32, ptr %25, align 4
  call void @_ZN5clang23OpenACCClauseWithParamsC2ENS_17OpenACCClauseKindENS_14SourceLocationES2_S2_(ptr noundef nonnull align 8 dereferenceable(24) %19, i32 noundef %20, i32 %22, i32 %24, i32 %26)
  store ptr getelementptr inbounds inrange(-16, 16) ({ [4 x ptr] }, ptr @_ZTVN5clang26OpenACCClauseWithConditionE, i32 0, i32 0, i32 2), ptr %19, align 8
  %27 = getelementptr inbounds nuw %"class.clang::OpenACCClauseWithCondition", ptr %19, i32 0, i32 1
  %28 = load ptr, ptr %12, align 8
  store ptr %28, ptr %27, align 8
  ret void
}

; Function Attrs: mustprogress nounwind uwtable
define dso_local void @_ZN5clang15OpenACCIfClauseC2ENS_14SourceLocationES1_PNS_4ExprES1_(ptr noundef nonnull align 8 dereferenceable(32) %0, i32 %1, i32 %2, ptr noundef %3, i32 %4) unnamed_addr #0 align 2 {
  %6 = alloca %"class.clang::SourceLocation", align 4
  %7 = alloca %"class.clang::SourceLocation", align 4
  %8 = alloca %"class.clang::SourceLocation", align 4
  %9 = alloca ptr, align 8
  %10 = alloca ptr, align 8
  %11 = alloca %"class.clang::SourceLocation", align 4
  %12 = alloca %"class.clang::SourceLocation", align 4
  %13 = alloca %"class.clang::SourceLocation", align 4
  %14 = getelementptr inbounds nuw %"class.clang::SourceLocation", ptr %6, i32 0, i32 0
  store i32 %1, ptr %14, align 4
  %15 = getelementptr inbounds nuw %"class.clang::SourceLocation", ptr %7, i32 0, i32 0
  store i32 %2, ptr %15, align 4
  %16 = getelementptr inbounds nuw %"class.clang::SourceLocation", ptr %8, i32 0, i32 0
  store i32 %4, ptr %16, align 4
  store ptr %0, ptr %9, align 8
  store ptr %3, ptr %10, align 8
  %17 = load ptr, ptr %9, align 8
  call void @llvm.memcpy.p0.p0.i64(ptr align 4 %11, ptr align 4 %6, i64 4, i1 false)
  call void @llvm.memcpy.p0.p0.i64(ptr align 4 %12, ptr align 4 %7, i64 4, i1 false)
  %18 = load ptr, ptr %10, align 8
  call void @llvm.memcpy.p0.p0.i64(ptr align 4 %13, ptr align 4 %8, i64 4, i1 false)
  %19 = getelementptr inbounds nuw %"class.clang::SourceLocation", ptr %11, i32 0, i32 0
  %20 = load i32, ptr %19, align 4
  %21 = getelementptr inbounds nuw %"class.clang::SourceLocation", ptr %12, i32 0, i32 0
  %22 = load i32, ptr %21, align 4
  %23 = getelementptr inbounds nuw %"class.clang::SourceLocation", ptr %13, i32 0, i32 0
  %24 = load i32, ptr %23, align 4
  call void @_ZN5clang26OpenACCClauseWithConditionC2ENS_17OpenACCClauseKindENS_14SourceLocationES2_PNS_4ExprES2_(ptr noundef nonnull align 8 dereferenceable(32) %17, i32 noundef 9, i32 %20, i32 %22, ptr noundef %18, i32 %24)
  store ptr getelementptr inbounds inrange(-16, 16) ({ [4 x ptr] }, ptr @_ZTVN5clang15OpenACCIfClauseE, i32 0, i32 0, i32 2), ptr %17, align 8
  ret void
}