; Function Attrs: mustprogress nofree norecurse nosync nounwind willreturn memory(argmem: write) uwtable
define dso_local void @_ZN5clang15OpenACCIfClauseC2ENS_14SourceLocationES1_PNS_4ExprES1_(ptr noundef nonnull writeonly align 8 captures(none) dereferenceable(32) initializes((0, 32)) %0, i32 %1, i32 %2, ptr noundef %3, i32 %4) unnamed_addr #3 align 2 {
  %6 = getelementptr inbounds nuw i8, ptr %0, i64 8
  store i32 9, ptr %6, align 8
  %7 = getelementptr inbounds nuw i8, ptr %0, i64 12
  store i32 %1, ptr %7, align 4
  %8 = getelementptr inbounds nuw i8, ptr %0, i64 16
  store i32 %4, ptr %8, align 8
  %9 = getelementptr inbounds nuw i8, ptr %0, i64 20
  store i32 %2, ptr %9, align 4
  %10 = getelementptr inbounds nuw i8, ptr %0, i64 24
  store ptr %3, ptr %10, align 8
  store ptr getelementptr inbounds nuw inrange(-16, 16) (i8, ptr @_ZTVN5clang15OpenACCIfClauseE, i64 16), ptr %0, align 8
  ret void
}